target datalayout = "e-m:e-p270:32:32-p271:32:32-p272:64:64-i64:64-i128:128-f80:128-n8:16:32:64-S128"
target triple = "x86_64-pc-linux-gnu"

%struct.PHP_MURMUR3C_CTX = type { [4 x i32], [4 x i32], i32 }

; Function Attrs: nounwind uwtable
define void @PHP_MURMUR3CUpdate(ptr noundef %0, ptr noundef %1, i64 noundef %2) #0 {
  %4 = alloca ptr, align 8
  %5 = alloca ptr, align 8
  %6 = alloca i64, align 8
  store ptr %0, ptr %4, align 8
  store ptr %1, ptr %5, align 8
  store i64 %2, ptr %6, align 8
  %7 = load i64, ptr %6, align 8
  %8 = load ptr, ptr %4, align 8
  %9 = getelementptr inbounds %struct.PHP_MURMUR3C_CTX, ptr %8, i32 0, i32 2
  %10 = load i32, ptr %9, align 4
  %11 = zext i32 %10 to i64
  %12 = add i64 %11, %7
  %13 = trunc i64 %12 to i32
  store i32 %13, ptr %9, align 4
  %14 = load ptr, ptr %4, align 8
  %15 = getelementptr inbounds %struct.PHP_MURMUR3C_CTX, ptr %14, i32 0, i32 0
  %16 = getelementptr inbounds [4 x i32], ptr %15, i64 0, i64 0
  %17 = load ptr, ptr %4, align 8
  %18 = getelementptr inbounds %struct.PHP_MURMUR3C_CTX, ptr %17, i32 0, i32 1
  %19 = getelementptr inbounds [4 x i32], ptr %18, i64 0, i64 0
  %20 = load ptr, ptr %5, align 8
  %21 = load i64, ptr %6, align 8
  %22 = trunc i64 %21 to i32
  call void @PMurHash128x86_Process(ptr noundef %16, ptr noundef %19, ptr noundef %20, i32 noundef %22)
  ret void
}